target datalayout = "e-m:e-p270:32:32-p271:32:32-p272:64:64-i64:64-i128:128-f80:128-n8:16:32:64-S128"
target triple = "x86_64-pc-linux-gnu"

%struct.DdNode = type { i32, i32, ptr, %union.anon, i64 }
%union.anon = type { %struct.DdChildren }
%struct.DdChildren = type { ptr, ptr }
%struct.ApproxInfo = type { ptr, ptr, ptr, ptr, i32, double, i32, double }
%struct.NodeData = type { double, double, i32, i8, i8, i16, ptr, ptr }

; Function Attrs: nounwind uwtable
define internal void @updateParity(ptr noundef %0, ptr noundef %1, i32 noundef %2) #0 {
  %4 = alloca ptr, align 8
  %5 = alloca ptr, align 8
  %6 = alloca i32, align 4
  %7 = alloca ptr, align 8
  %8 = alloca ptr, align 8
  %9 = alloca i32, align 4
  store ptr %0, ptr %4, align 8, !tbaa !8
  store ptr %1, ptr %5, align 8, !tbaa !33
  store i32 %2, ptr %6, align 4, !tbaa !10
  call void @llvm.lifetime.start.p0(i64 8, ptr %7) #7
  call void @llvm.lifetime.start.p0(i64 8, ptr %8) #7
  %10 = load ptr, ptr %5, align 8, !tbaa !33
  %11 = getelementptr inbounds nuw %struct.ApproxInfo, ptr %10, i32 0, i32 3
  %12 = load ptr, ptr %11, align 8, !tbaa !40
  %13 = load ptr, ptr %4, align 8, !tbaa !8
  %14 = call i32 @st__lookup(ptr noundef %12, ptr noundef %13, ptr noundef %7)
  %15 = icmp ne i32 %14, 0
  br i1 %15, label %17, label %16

16:                                               ; preds = %3
  store i32 1, ptr %9, align 4
  br label %73

17:                                               ; preds = %3
  %18 = load ptr, ptr %7, align 8, !tbaa !57
  %19 = getelementptr inbounds nuw %struct.NodeData, ptr %18, i32 0, i32 5
  %20 = load i16, ptr %19, align 2, !tbaa !76
  %21 = sext i16 %20 to i32
  %22 = load i32, ptr %6, align 4, !tbaa !10
  %23 = and i32 %21, %22
  %24 = icmp ne i32 %23, 0
  br i1 %24, label %25, label %26

25:                                               ; preds = %17
  store i32 1, ptr %9, align 4
  br label %73

26:                                               ; preds = %17
  %27 = load i32, ptr %6, align 4, !tbaa !10
  %28 = trunc i32 %27 to i16
  %29 = sext i16 %28 to i32
  %30 = load ptr, ptr %7, align 8, !tbaa !57
  %31 = getelementptr inbounds nuw %struct.NodeData, ptr %30, i32 0, i32 5
  %32 = load i16, ptr %31, align 2, !tbaa !76
  %33 = sext i16 %32 to i32
  %34 = or i32 %33, %29
  %35 = trunc i32 %34 to i16
  store i16 %35, ptr %31, align 2, !tbaa !76
  %36 = load ptr, ptr %4, align 8, !tbaa !8
  %37 = ptrtoint ptr %36 to i64
  %38 = and i64 %37, -2
  %39 = inttoptr i64 %38 to ptr
  %40 = getelementptr inbounds nuw %struct.DdNode, ptr %39, i32 0, i32 0
  %41 = load i32, ptr %40, align 8, !tbaa !32
  %42 = icmp eq i32 %41, 2147483647
  br i1 %42, label %43, label %44

43:                                               ; preds = %26
  store i32 1, ptr %9, align 4
  br label %73

44:                                               ; preds = %26
  %45 = load ptr, ptr %4, align 8, !tbaa !8
  %46 = getelementptr inbounds nuw %struct.DdNode, ptr %45, i32 0, i32 3
  %47 = getelementptr inbounds nuw %struct.DdChildren, ptr %46, i32 0, i32 0
  %48 = load ptr, ptr %47, align 8, !tbaa !79
  %49 = load ptr, ptr %5, align 8, !tbaa !33
  %50 = load i32, ptr %6, align 4, !tbaa !10
  call void @updateParity(ptr noundef %48, ptr noundef %49, i32 noundef %50)
  %51 = load ptr, ptr %4, align 8, !tbaa !8
  %52 = getelementptr inbounds nuw %struct.DdNode, ptr %51, i32 0, i32 3
  %53 = getelementptr inbounds nuw %struct.DdChildren, ptr %52, i32 0, i32 1
  %54 = load ptr, ptr %53, align 8, !tbaa !79
  store ptr %54, ptr %8, align 8, !tbaa !8
  %55 = load ptr, ptr %8, align 8, !tbaa !8
  %56 = ptrtoint ptr %55 to i64
  %57 = and i64 %56, 1
  %58 = trunc i64 %57 to i32
  %59 = icmp ne i32 %58, 0
  br i1 %59, label %60, label %68

60:                                               ; preds = %44
  %61 = load ptr, ptr %8, align 8, !tbaa !8
  %62 = ptrtoint ptr %61 to i64
  %63 = xor i64 %62, 1
  %64 = inttoptr i64 %63 to ptr
  %65 = load ptr, ptr %5, align 8, !tbaa !33
  %66 = load i32, ptr %6, align 4, !tbaa !10
  %67 = sub nsw i32 3, %66
  call void @updateParity(ptr noundef %64, ptr noundef %65, i32 noundef %67)
  br label %72

68:                                               ; preds = %44
  %69 = load ptr, ptr %8, align 8, !tbaa !8
  %70 = load ptr, ptr %5, align 8, !tbaa !33
  %71 = load i32, ptr %6, align 4, !tbaa !10
  call void @updateParity(ptr noundef %69, ptr noundef %70, i32 noundef %71)
  br label %72

72:                                               ; preds = %68, %60
  store i32 1, ptr %9, align 4
  br label %73

73:                                               ; preds = %72, %43, %25, %16
  call void @llvm.lifetime.end.p0(i64 8, ptr %8) #7
  call void @llvm.lifetime.end.p0(i64 8, ptr %7) #7
  ret void
}