; Function Attrs: nounwind uwtable
define internal fastcc void @updateParity(ptr noundef %0, ptr noundef nonnull %1, i32 noundef range(i32 1, 3) %2) unnamed_addr #0 {
  %4 = alloca ptr, align 8
  call void @llvm.lifetime.start.p0(i64 8, ptr nonnull %4) #10
  %5 = getelementptr inbounds nuw i8, ptr %1, i64 24
  %6 = load ptr, ptr %5, align 8, !tbaa !46
  %7 = call i32 @st__lookup(ptr noundef %6, ptr noundef %0, ptr noundef nonnull %4) #10
  %.not = icmp eq i32 %7, 0
  br i1 %.not, label %34, label %8

8:                                                ; preds = %3
  %9 = load ptr, ptr %4, align 8, !tbaa !47
  %10 = getelementptr inbounds nuw i8, ptr %9, i64 22
  %11 = load i16, ptr %10, align 2, !tbaa !48
  %12 = zext i16 %11 to i32
  %13 = and i32 %2, %12
  %.not15 = icmp eq i32 %13, 0
  br i1 %.not15, label %14, label %34

14:                                               ; preds = %8
  %15 = trunc nuw nsw i32 %2 to i16
  %16 = or i16 %11, %15
  store i16 %16, ptr %10, align 2, !tbaa !48
  %17 = ptrtoint ptr %0 to i64
  %18 = and i64 %17, -2
  %19 = inttoptr i64 %18 to ptr
  %20 = load i32, ptr %19, align 8, !tbaa !27
  %21 = icmp eq i32 %20, 2147483647
  br i1 %21, label %34, label %22

22:                                               ; preds = %14
  %23 = getelementptr inbounds nuw i8, ptr %0, i64 16
  %24 = load ptr, ptr %23, align 8, !tbaa !56
  call fastcc void @updateParity(ptr noundef %24, ptr noundef %1, i32 noundef %2)
  %25 = getelementptr inbounds nuw i8, ptr %0, i64 24
  %26 = load ptr, ptr %25, align 8, !tbaa !56
  %27 = ptrtoint ptr %26 to i64
  %28 = and i64 %27, 1
  %.not16 = icmp eq i64 %28, 0
  br i1 %.not16, label %33, label %29

29:                                               ; preds = %22
  %30 = and i64 %27, -2
  %31 = inttoptr i64 %30 to ptr
  %32 = xor i32 %2, 3
  call fastcc void @updateParity(ptr noundef %31, ptr noundef %1, i32 noundef %32)
  br label %34

33:                                               ; preds = %22
  call fastcc void @updateParity(ptr noundef %26, ptr noundef %1, i32 noundef %2)
  br label %34

34:                                               ; preds = %29, %33, %14, %8, %3
  call void @llvm.lifetime.end.p0(i64 8, ptr nonnull %4) #10
  ret void
}